target datalayout = "e-m:e-p270:32:32-p271:32:32-p272:64:64-i64:64-i128:128-f80:128-n8:16:32:64-S128"
target triple = "x86_64-unknown-linux-gnu"

%struct.ResourceData = type { ptr, ptr, ptr, ptr, i32, i32, ptr, i32, i32, i8, i8, i8, i8 }
%"class.icu_75::ResourceTracer" = type { i8 }
%"class.icu_75::ResourceArray" = type <{ ptr, ptr, i32, %"class.icu_75::ResourceTracer", [3 x i8] }>

; Function Attrs: mustprogress nounwind uwtable
define internal noundef i32 @_ZL18makeResourceFrom16PK12ResourceDatai(ptr noundef %pResData, i32 noundef %res16) #2 {
entry:
  %pResData.addr = alloca ptr, align 8
  %res16.addr = alloca i32, align 4
  store ptr %pResData, ptr %pResData.addr, align 8
  store i32 %res16, ptr %res16.addr, align 4
  %0 = load i32, ptr %res16.addr, align 4
  %1 = load ptr, ptr %pResData.addr, align 8
  %poolStringIndex16Limit = getelementptr inbounds %struct.ResourceData, ptr %1, i32 0, i32 8
  %2 = load i32, ptr %poolStringIndex16Limit, align 4
  %cmp = icmp slt i32 %0, %2
  br i1 %cmp, label %if.then, label %if.else

if.then:                                          ; preds = %entry
  br label %if.end

if.else:                                          ; preds = %entry
  %3 = load i32, ptr %res16.addr, align 4
  %4 = load ptr, ptr %pResData.addr, align 8
  %poolStringIndex16Limit1 = getelementptr inbounds %struct.ResourceData, ptr %4, i32 0, i32 8
  %5 = load i32, ptr %poolStringIndex16Limit1, align 4
  %sub = sub nsw i32 %3, %5
  %6 = load ptr, ptr %pResData.addr, align 8
  %poolStringIndexLimit = getelementptr inbounds %struct.ResourceData, ptr %6, i32 0, i32 7
  %7 = load i32, ptr %poolStringIndexLimit, align 8
  %add = add nsw i32 %sub, %7
  store i32 %add, ptr %res16.addr, align 4
  br label %if.end

if.end:                                           ; preds = %if.else, %if.then
  %8 = load i32, ptr %res16.addr, align 4
  %or = or i32 1610612736, %8
  ret i32 %or
}

; Function Attrs: mustprogress uwtable
define noundef i32 @_ZNK6icu_7513ResourceArray19internalGetResourceEPK12ResourceDatai(ptr noundef nonnull align 8 dereferenceable(21) %this, ptr noundef %pResData, i32 noundef %i) #0 align 2 {
entry:
  %retval = alloca i32, align 4
  %this.addr = alloca ptr, align 8
  %pResData.addr = alloca ptr, align 8
  %i.addr = alloca i32, align 4
  store ptr %this, ptr %this.addr, align 8
  store ptr %pResData, ptr %pResData.addr, align 8
  store i32 %i, ptr %i.addr, align 4
  %this1 = load ptr, ptr %this.addr, align 8
  %items16 = getelementptr inbounds %"class.icu_75::ResourceArray", ptr %this1, i32 0, i32 0
  %0 = load ptr, ptr %items16, align 8
  %cmp = icmp ne ptr %0, null
  br i1 %cmp, label %if.then, label %if.else

if.then:                                          ; preds = %entry
  %1 = load ptr, ptr %pResData.addr, align 8
  %items162 = getelementptr inbounds %"class.icu_75::ResourceArray", ptr %this1, i32 0, i32 0
  %2 = load ptr, ptr %items162, align 8
  %3 = load i32, ptr %i.addr, align 4
  %idxprom = sext i32 %3 to i64
  %arrayidx = getelementptr inbounds i16, ptr %2, i64 %idxprom
  %4 = load i16, ptr %arrayidx, align 2
  %conv = zext i16 %4 to i32
  %call = call noundef i32 @_ZL18makeResourceFrom16PK12ResourceDatai(ptr noundef %1, i32 noundef %conv)
  store i32 %call, ptr %retval, align 4
  br label %return

if.else:                                          ; preds = %entry
  %items32 = getelementptr inbounds %"class.icu_75::ResourceArray", ptr %this1, i32 0, i32 1
  %5 = load ptr, ptr %items32, align 8
  %6 = load i32, ptr %i.addr, align 4
  %idxprom3 = sext i32 %6 to i64
  %arrayidx4 = getelementptr inbounds i32, ptr %5, i64 %idxprom3
  %7 = load i32, ptr %arrayidx4, align 4
  store i32 %7, ptr %retval, align 4
  br label %return

return:                                           ; preds = %if.else, %if.then
  %8 = load i32, ptr %retval, align 4
  ret i32 %8
}