; Function Attrs: mustprogress nofree norecurse nosync nounwind willreturn memory(read, inaccessiblemem: none) uwtable
define noundef i32 @_ZNK6icu_7513ResourceArray19internalGetResourceEPK12ResourceDatai(ptr nocapture noundef nonnull readonly align 8 dereferenceable(21) %this, ptr nocapture noundef readonly %pResData, i32 noundef %i) local_unnamed_addr #6 align 2 {
entry:
  %0 = load ptr, ptr %this, align 8
  %cmp.not = icmp eq ptr %0, null
  br i1 %cmp.not, label %if.else, label %if.then

if.then:                                          ; preds = %entry
  %idxprom = sext i32 %i to i64
  %arrayidx = getelementptr inbounds i16, ptr %0, i64 %idxprom
  %1 = load i16, ptr %arrayidx, align 2
  %conv = zext i16 %1 to i32
  %poolStringIndex16Limit.i = getelementptr inbounds i8, ptr %pResData, i64 52
  %2 = load i32, ptr %poolStringIndex16Limit.i, align 4
  %cmp.i = icmp sgt i32 %2, %conv
  br i1 %cmp.i, label %_ZL18makeResourceFrom16PK12ResourceDatai.exit, label %if.else.i

if.else.i:                                        ; preds = %if.then
  %sub.i = sub i32 %conv, %2
  %poolStringIndexLimit.i = getelementptr inbounds i8, ptr %pResData, i64 48
  %3 = load i32, ptr %poolStringIndexLimit.i, align 8
  %add.i = add nsw i32 %sub.i, %3
  br label %_ZL18makeResourceFrom16PK12ResourceDatai.exit

_ZL18makeResourceFrom16PK12ResourceDatai.exit:    ; preds = %if.then, %if.else.i
  %res16.addr.0.i = phi i32 [ %conv, %if.then ], [ %add.i, %if.else.i ]
  %or.i = or i32 %res16.addr.0.i, 1610612736
  br label %return

if.else:                                          ; preds = %entry
  %items32 = getelementptr inbounds i8, ptr %this, i64 8
  %4 = load ptr, ptr %items32, align 8
  %idxprom3 = sext i32 %i to i64
  %arrayidx4 = getelementptr inbounds i32, ptr %4, i64 %idxprom3
  %5 = load i32, ptr %arrayidx4, align 4
  br label %return

return:                                           ; preds = %if.else, %_ZL18makeResourceFrom16PK12ResourceDatai.exit
  %retval.0 = phi i32 [ %or.i, %_ZL18makeResourceFrom16PK12ResourceDatai.exit ], [ %5, %if.else ]
  ret i32 %retval.0
}